; Function Attrs: mustprogress nofree norecurse nosync nounwind willreturn memory(read, inaccessiblemem: none) uwtable
define dso_local noundef nonnull align 8 dereferenceable(24) ptr @_ZNK16cmUVProcessChain9GetStatusEm(ptr noundef nonnull readonly align 8 captures(none) dereferenceable(8) %0, i64 noundef %1) local_unnamed_addr #10 align 2 {
  %3 = load ptr, ptr %0, align 8
  %4 = getelementptr inbounds nuw i8, ptr %3, i64 152
  %5 = load ptr, ptr %4, align 8
  %6 = getelementptr inbounds %"class.std::unique_ptr.23", ptr %5, i64 %1
  %7 = load ptr, ptr %6, align 8
  %8 = getelementptr inbounds nuw i8, ptr %7, i64 56
  ret ptr %8
}